; Function Attrs: mustprogress nofree norecurse nosync nounwind willreturn memory(argmem: readwrite) uwtable
define void @_ZN2cv4gapi3wip6onevpl7GSourceC2EOSt10unique_ptrINS3_4PrivESt14default_deleteIS5_EE(ptr nocapture noundef nonnull writeonly align 8 dereferenceable(32) %0, ptr nocapture noundef nonnull align 8 dereferenceable(8) %1) unnamed_addr #5 align 2 {
  %3 = getelementptr inbounds i8, ptr %0, i64 8
  tail call void @llvm.memset.p0.i64(ptr noundef nonnull align 8 dereferenceable(16) %3, i8 0, i64 16, i1 false)
  store ptr getelementptr inbounds inrange(-16, 40) (i8, ptr @_ZTVN2cv4gapi3wip6onevpl7GSourceE, i64 16), ptr %0, align 8
  %4 = getelementptr inbounds i8, ptr %0, i64 24
  %5 = load i64, ptr %1, align 8
  store i64 %5, ptr %4, align 8
  store ptr null, ptr %1, align 8
  ret void
}